target datalayout = "e-m:e-p270:32:32-p271:32:32-p272:64:64-i64:64-i128:128-f80:128-n8:16:32:64-S128"
target triple = "x86_64-pc-linux-gnu"

%struct.bn_blinding_st = type { ptr, ptr, ptr, ptr, i64, i32, i64, ptr, ptr, ptr }

@.str = private unnamed_addr constant [32 x i8] c"../openssl/crypto/bn/bn_blind.c\00", align 1
@__func__.BN_BLINDING_update = private unnamed_addr constant [19 x i8] c"BN_BLINDING_update\00", align 1

; Function Attrs: nounwind uwtable
define i32 @BN_BLINDING_update(ptr noundef %0, ptr noundef %1) #0 {
  %3 = alloca ptr, align 8
  %4 = alloca ptr, align 8
  %5 = alloca i32, align 4
  store ptr %0, ptr %3, align 8, !tbaa !8
  store ptr %1, ptr %4, align 8, !tbaa !21
  call void @llvm.lifetime.start.p0(i64 4, ptr %5) #3
  store i32 0, ptr %5, align 4, !tbaa !23
  %6 = load ptr, ptr %3, align 8, !tbaa !8
  %7 = getelementptr inbounds nuw %struct.bn_blinding_st, ptr %6, i32 0, i32 0
  %8 = load ptr, ptr %7, align 8, !tbaa !15
  %9 = icmp eq ptr %8, null
  br i1 %9, label %15, label %10

10:                                               ; preds = %2
  %11 = load ptr, ptr %3, align 8, !tbaa !8
  %12 = getelementptr inbounds nuw %struct.bn_blinding_st, ptr %11, i32 0, i32 1
  %13 = load ptr, ptr %12, align 8, !tbaa !16
  %14 = icmp eq ptr %13, null
  br i1 %14, label %15, label %16

15:                                               ; preds = %10, %2
  call void @ERR_new()
  call void @ERR_set_debug(ptr noundef @.str, i32 noundef 96, ptr noundef @__func__.BN_BLINDING_update)
  call void (i32, i32, ptr, ...) @ERR_set_error(i32 noundef 3, i32 noundef 107, ptr noundef null)
  br label %130

16:                                               ; preds = %10
  %17 = load ptr, ptr %3, align 8, !tbaa !8
  %18 = getelementptr inbounds nuw %struct.bn_blinding_st, ptr %17, i32 0, i32 5
  %19 = load i32, ptr %18, align 8, !tbaa !18
  %20 = icmp eq i32 %19, -1
  br i1 %20, label %21, label %24

21:                                               ; preds = %16
  %22 = load ptr, ptr %3, align 8, !tbaa !8
  %23 = getelementptr inbounds nuw %struct.bn_blinding_st, ptr %22, i32 0, i32 5
  store i32 0, ptr %23, align 8, !tbaa !18
  br label %24

24:                                               ; preds = %21, %16
  %25 = load ptr, ptr %3, align 8, !tbaa !8
  %26 = getelementptr inbounds nuw %struct.bn_blinding_st, ptr %25, i32 0, i32 5
  %27 = load i32, ptr %26, align 8, !tbaa !18
  %28 = add nsw i32 %27, 1
  store i32 %28, ptr %26, align 8, !tbaa !18
  %29 = icmp eq i32 %28, 32
  br i1 %29, label %30, label %48

30:                                               ; preds = %24
  %31 = load ptr, ptr %3, align 8, !tbaa !8
  %32 = getelementptr inbounds nuw %struct.bn_blinding_st, ptr %31, i32 0, i32 2
  %33 = load ptr, ptr %32, align 8, !tbaa !20
  %34 = icmp ne ptr %33, null
  br i1 %34, label %35, label %48

35:                                               ; preds = %30
  %36 = load ptr, ptr %3, align 8, !tbaa !8
  %37 = getelementptr inbounds nuw %struct.bn_blinding_st, ptr %36, i32 0, i32 6
  %38 = load i64, ptr %37, align 8, !tbaa !24
  %39 = and i64 %38, 2
  %40 = icmp ne i64 %39, 0
  br i1 %40, label %48, label %41

41:                                               ; preds = %35
  %42 = load ptr, ptr %3, align 8, !tbaa !8
  %43 = load ptr, ptr %4, align 8, !tbaa !21
  %44 = call ptr @BN_BLINDING_create_param(ptr noundef %42, ptr noundef null, ptr noundef null, ptr noundef %43, ptr noundef null, ptr noundef null)
  %45 = icmp ne ptr %44, null
  br i1 %45, label %47, label %46

46:                                               ; preds = %41
  br label %130

47:                                               ; preds = %41
  br label %129

48:                                               ; preds = %35, %30, %24
  %49 = load ptr, ptr %3, align 8, !tbaa !8
  %50 = getelementptr inbounds nuw %struct.bn_blinding_st, ptr %49, i32 0, i32 6
  %51 = load i64, ptr %50, align 8, !tbaa !24
  %52 = and i64 %51, 1
  %53 = icmp ne i64 %52, 0
  br i1 %53, label %128, label %54

54:                                               ; preds = %48
  %55 = load ptr, ptr %3, align 8, !tbaa !8
  %56 = getelementptr inbounds nuw %struct.bn_blinding_st, ptr %55, i32 0, i32 7
  %57 = load ptr, ptr %56, align 8, !tbaa !25
  %58 = icmp ne ptr %57, null
  br i1 %58, label %59, label %93

59:                                               ; preds = %54
  %60 = load ptr, ptr %3, align 8, !tbaa !8
  %61 = getelementptr inbounds nuw %struct.bn_blinding_st, ptr %60, i32 0, i32 1
  %62 = load ptr, ptr %61, align 8, !tbaa !16
  %63 = load ptr, ptr %3, align 8, !tbaa !8
  %64 = getelementptr inbounds nuw %struct.bn_blinding_st, ptr %63, i32 0, i32 1
  %65 = load ptr, ptr %64, align 8, !tbaa !16
  %66 = load ptr, ptr %3, align 8, !tbaa !8
  %67 = getelementptr inbounds nuw %struct.bn_blinding_st, ptr %66, i32 0, i32 1
  %68 = load ptr, ptr %67, align 8, !tbaa !16
  %69 = load ptr, ptr %3, align 8, !tbaa !8
  %70 = getelementptr inbounds nuw %struct.bn_blinding_st, ptr %69, i32 0, i32 7
  %71 = load ptr, ptr %70, align 8, !tbaa !25
  %72 = load ptr, ptr %4, align 8, !tbaa !21
  %73 = call i32 @bn_mul_mont_fixed_top(ptr noundef %62, ptr noundef %65, ptr noundef %68, ptr noundef %71, ptr noundef %72)
  %74 = icmp ne i32 %73, 0
  br i1 %74, label %75, label %91

75:                                               ; preds = %59
  %76 = load ptr, ptr %3, align 8, !tbaa !8
  %77 = getelementptr inbounds nuw %struct.bn_blinding_st, ptr %76, i32 0, i32 0
  %78 = load ptr, ptr %77, align 8, !tbaa !15
  %79 = load ptr, ptr %3, align 8, !tbaa !8
  %80 = getelementptr inbounds nuw %struct.bn_blinding_st, ptr %79, i32 0, i32 0
  %81 = load ptr, ptr %80, align 8, !tbaa !15
  %82 = load ptr, ptr %3, align 8, !tbaa !8
  %83 = getelementptr inbounds nuw %struct.bn_blinding_st, ptr %82, i32 0, i32 0
  %84 = load ptr, ptr %83, align 8, !tbaa !15
  %85 = load ptr, ptr %3, align 8, !tbaa !8
  %86 = getelementptr inbounds nuw %struct.bn_blinding_st, ptr %85, i32 0, i32 7
  %87 = load ptr, ptr %86, align 8, !tbaa !25
  %88 = load ptr, ptr %4, align 8, !tbaa !21
  %89 = call i32 @bn_mul_mont_fixed_top(ptr noundef %78, ptr noundef %81, ptr noundef %84, ptr noundef %87, ptr noundef %88)
  %90 = icmp ne i32 %89, 0
  br i1 %90, label %92, label %91

91:                                               ; preds = %75, %59
  br label %130

92:                                               ; preds = %75
  br label %127

93:                                               ; preds = %54
  %94 = load ptr, ptr %3, align 8, !tbaa !8
  %95 = getelementptr inbounds nuw %struct.bn_blinding_st, ptr %94, i32 0, i32 1
  %96 = load ptr, ptr %95, align 8, !tbaa !16
  %97 = load ptr, ptr %3, align 8, !tbaa !8
  %98 = getelementptr inbounds nuw %struct.bn_blinding_st, ptr %97, i32 0, i32 1
  %99 = load ptr, ptr %98, align 8, !tbaa !16
  %100 = load ptr, ptr %3, align 8, !tbaa !8
  %101 = getelementptr inbounds nuw %struct.bn_blinding_st, ptr %100, i32 0, i32 1
  %102 = load ptr, ptr %101, align 8, !tbaa !16
  %103 = load ptr, ptr %3, align 8, !tbaa !8
  %104 = getelementptr inbounds nuw %struct.bn_blinding_st, ptr %103, i32 0, i32 3
  %105 = load ptr, ptr %104, align 8, !tbaa !17
  %106 = load ptr, ptr %4, align 8, !tbaa !21
  %107 = call i32 @BN_mod_mul(ptr noundef %96, ptr noundef %99, ptr noundef %102, ptr noundef %105, ptr noundef %106)
  %108 = icmp ne i32 %107, 0
  br i1 %108, label %109, label %125

109:                                              ; preds = %93
  %110 = load ptr, ptr %3, align 8, !tbaa !8
  %111 = getelementptr inbounds nuw %struct.bn_blinding_st, ptr %110, i32 0, i32 0
  %112 = load ptr, ptr %111, align 8, !tbaa !15
  %113 = load ptr, ptr %3, align 8, !tbaa !8
  %114 = getelementptr inbounds nuw %struct.bn_blinding_st, ptr %113, i32 0, i32 0
  %115 = load ptr, ptr %114, align 8, !tbaa !15
  %116 = load ptr, ptr %3, align 8, !tbaa !8
  %117 = getelementptr inbounds nuw %struct.bn_blinding_st, ptr %116, i32 0, i32 0
  %118 = load ptr, ptr %117, align 8, !tbaa !15
  %119 = load ptr, ptr %3, align 8, !tbaa !8
  %120 = getelementptr inbounds nuw %struct.bn_blinding_st, ptr %119, i32 0, i32 3
  %121 = load ptr, ptr %120, align 8, !tbaa !17
  %122 = load ptr, ptr %4, align 8, !tbaa !21
  %123 = call i32 @BN_mod_mul(ptr noundef %112, ptr noundef %115, ptr noundef %118, ptr noundef %121, ptr noundef %122)
  %124 = icmp ne i32 %123, 0
  br i1 %124, label %126, label %125

125:                                              ; preds = %109, %93
  br label %130

126:                                              ; preds = %109
  br label %127

127:                                              ; preds = %126, %92
  br label %128

128:                                              ; preds = %127, %48
  br label %129

129:                                              ; preds = %128, %47
  store i32 1, ptr %5, align 4, !tbaa !23
  br label %130

130:                                              ; preds = %129, %125, %91, %46, %15
  %131 = load ptr, ptr %3, align 8, !tbaa !8
  %132 = getelementptr inbounds nuw %struct.bn_blinding_st, ptr %131, i32 0, i32 5
  %133 = load i32, ptr %132, align 8, !tbaa !18
  %134 = icmp eq i32 %133, 32
  br i1 %134, label %135, label %138

135:                                              ; preds = %130
  %136 = load ptr, ptr %3, align 8, !tbaa !8
  %137 = getelementptr inbounds nuw %struct.bn_blinding_st, ptr %136, i32 0, i32 5
  store i32 0, ptr %137, align 8, !tbaa !18
  br label %138

138:                                              ; preds = %135, %130
  %139 = load i32, ptr %5, align 4, !tbaa !23
  call void @llvm.lifetime.end.p0(i64 4, ptr %5) #3
  ret i32 %139
}