; Function Attrs: nounwind uwtable
define range(i32 0, 2) i32 @BN_BLINDING_update(ptr noundef %0, ptr noundef %1) local_unnamed_addr #0 {
  %3 = load ptr, ptr %0, align 8, !tbaa !13
  %4 = icmp eq ptr %3, null
  br i1 %4, label %9, label %5

5:                                                ; preds = %2
  %6 = getelementptr inbounds nuw i8, ptr %0, i64 8
  %7 = load ptr, ptr %6, align 8, !tbaa !14
  %8 = icmp eq ptr %7, null
  br i1 %8, label %9, label %10

9:                                                ; preds = %5, %2
  tail call void @ERR_new() #6
  tail call void @ERR_set_debug(ptr noundef nonnull @.str, i32 noundef 96, ptr noundef nonnull @__func__.BN_BLINDING_update) #6
  tail call void (i32, i32, ptr, ...) @ERR_set_error(i32 noundef 3, i32 noundef 107, ptr noundef null) #6
  br label %48

10:                                               ; preds = %5
  %11 = getelementptr inbounds nuw i8, ptr %0, i64 40
  %12 = load i32, ptr %11, align 8, !tbaa !16
  %13 = icmp eq i32 %12, -1
  br i1 %13, label %.thread, label %14

.thread:                                          ; preds = %10
  store i32 1, ptr %11, align 8, !tbaa !16
  br label %26

14:                                               ; preds = %10
  %15 = add nuw nsw i32 %12, 1
  store i32 %15, ptr %11, align 8, !tbaa !16
  %16 = icmp eq i32 %15, 32
  br i1 %16, label %17, label %26

17:                                               ; preds = %14
  %18 = getelementptr inbounds nuw i8, ptr %0, i64 16
  %19 = load ptr, ptr %18, align 8, !tbaa !17
  %.not = icmp eq ptr %19, null
  br i1 %.not, label %26, label %20

20:                                               ; preds = %17
  %21 = getelementptr inbounds nuw i8, ptr %0, i64 48
  %22 = load i64, ptr %21, align 8, !tbaa !18
  %23 = and i64 %22, 2
  %.not34 = icmp eq i64 %23, 0
  br i1 %.not34, label %24, label %26

24:                                               ; preds = %20
  %25 = tail call ptr @BN_BLINDING_create_param(ptr noundef nonnull %0, ptr noundef null, ptr noundef null, ptr noundef %1, ptr noundef null, ptr noundef null)
  %.not35 = icmp eq ptr %25, null
  br i1 %.not35, label %48, label %47

26:                                               ; preds = %.thread, %20, %17, %14
  %27 = getelementptr inbounds nuw i8, ptr %0, i64 48
  %28 = load i64, ptr %27, align 8, !tbaa !18
  %29 = and i64 %28, 1
  %.not36 = icmp eq i64 %29, 0
  br i1 %.not36, label %30, label %47

30:                                               ; preds = %26
  %31 = getelementptr inbounds nuw i8, ptr %0, i64 56
  %32 = load ptr, ptr %31, align 8, !tbaa !19
  %.not37 = icmp eq ptr %32, null
  br i1 %.not37, label %39, label %33

33:                                               ; preds = %30
  %34 = tail call i32 @bn_mul_mont_fixed_top(ptr noundef nonnull %7, ptr noundef nonnull %7, ptr noundef nonnull %7, ptr noundef nonnull %32, ptr noundef %1) #6
  %.not40 = icmp eq i32 %34, 0
  br i1 %.not40, label %48, label %35

35:                                               ; preds = %33
  %36 = load ptr, ptr %0, align 8, !tbaa !13
  %37 = load ptr, ptr %31, align 8, !tbaa !19
  %38 = tail call i32 @bn_mul_mont_fixed_top(ptr noundef %36, ptr noundef %36, ptr noundef %36, ptr noundef %37, ptr noundef %1) #6
  %.not41 = icmp eq i32 %38, 0
  br i1 %.not41, label %48, label %47

39:                                               ; preds = %30
  %40 = getelementptr inbounds nuw i8, ptr %0, i64 24
  %41 = load ptr, ptr %40, align 8, !tbaa !15
  %42 = tail call i32 @BN_mod_mul(ptr noundef nonnull %7, ptr noundef nonnull %7, ptr noundef nonnull %7, ptr noundef %41, ptr noundef %1) #6
  %.not38 = icmp eq i32 %42, 0
  br i1 %.not38, label %48, label %43

43:                                               ; preds = %39
  %44 = load ptr, ptr %0, align 8, !tbaa !13
  %45 = load ptr, ptr %40, align 8, !tbaa !15
  %46 = tail call i32 @BN_mod_mul(ptr noundef %44, ptr noundef %44, ptr noundef %44, ptr noundef %45, ptr noundef %1) #6
  %.not39 = icmp eq i32 %46, 0
  br i1 %.not39, label %48, label %47

47:                                               ; preds = %26, %43, %35, %24
  br label %48

48:                                               ; preds = %39, %43, %33, %35, %24, %47, %9
  %.0 = phi i32 [ 0, %9 ], [ 1, %47 ], [ 0, %35 ], [ 0, %33 ], [ 0, %43 ], [ 0, %39 ], [ 0, %24 ]
  %49 = getelementptr inbounds nuw i8, ptr %0, i64 40
  %50 = load i32, ptr %49, align 8, !tbaa !16
  %51 = icmp eq i32 %50, 32
  br i1 %51, label %52, label %53

52:                                               ; preds = %48
  store i32 0, ptr %49, align 8, !tbaa !16
  br label %53

53:                                               ; preds = %52, %48
  ret i32 %.0
}